#include <math.h>
#include <stdio.h>
#include <stdlib.h>
#include <string.h>

int main()
{
	int n,k;
	scanf("%d%d",&n,&k);
	int i,j,p=0,q;
    int num[1000];
	for(i=0;i<n;i++)
	{
         int num1;
         scanf("%d",&num1);
         num[i]=num1;
	}
    for(q=0;q<n;q++)
	{
		for(j=q+1;j<n;j++)
		{
			if((num[q] + num[j])==k)
			{
				p++;
				break;
			}
		}
	if(p>0)break;
     }

	if(p==0)
	{
		printf("no");
	}else{
	printf("yes");
		}
return 0;
}
